target datalayout = "e-m:e-p270:32:32-p271:32:32-p272:64:64-i64:64-i128:128-f80:128-n8:16:32:64-S128"
target triple = "x86_64-pc-linux-gnu"

%struct.expert_field = type { i32, i32 }
%struct._h248_curr_info_t = type { ptr, ptr, ptr, ptr, ptr, ptr, ptr, ptr, ptr, ptr }
%struct._asn1_ctx_t = type { i32, i32, i8, ptr, ptr, ptr, ptr, ptr, %struct.anon.2, %struct.anon.5, %struct.anon.6, ptr }
%struct.anon.2 = type { i32, i8, i8, i8, ptr, ptr, i32, i32, ptr, ptr, ptr, %union.anon }
%union.anon = type { %struct.anon.3 }
%struct.anon.3 = type { ptr }
%struct.anon.5 = type { ptr, ptr, ptr }
%struct.anon.6 = type { i32, i8, ptr, i32, i32, ptr, ptr, ptr, %union.anon.7 }
%union.anon.7 = type { %struct.anon.8 }
%struct.anon.8 = type { ptr }

@hf_h248_context_id = internal global i32 0, align 4
@hf_h248_context_id64 = internal global i32 0, align 4
@ei_h248_context_id64 = internal global %struct.expert_field zeroinitializer, align 4
@keep_persistent_data = internal global i32 0, align 4
@curr_info = internal global %struct._h248_curr_info_t zeroinitializer, align 8
@.str.1313 = private unnamed_addr constant [27 x i8] c"contextId: Null Context(0)\00", align 1
@.str.1314 = private unnamed_addr constant [43 x i8] c"contextId: $ (Choose Context = 0xfffffffe)\00", align 1
@.str.1315 = private unnamed_addr constant [41 x i8] c"contextId: * (All Contexts = 0xffffffff)\00", align 1

; Function Attrs: nounwind uwtable
define internal i32 @dissect_h248_ctx_id(i1 noundef zeroext %0, ptr noundef %1, ptr noundef %2, ptr noundef %3, i32 noundef %4, ptr noundef %5) #0 {
  %7 = alloca i8, align 1
  %8 = alloca ptr, align 8
  %9 = alloca ptr, align 8
  %10 = alloca ptr, align 8
  %11 = alloca i32, align 4
  %12 = alloca ptr, align 8
  %13 = alloca i8, align 1
  %14 = alloca i8, align 1
  %15 = alloca i32, align 4
  %16 = alloca i32, align 4
  %17 = alloca i64, align 8
  %18 = alloca i32, align 4
  %19 = alloca ptr, align 8
  %20 = alloca ptr, align 8
  %21 = zext i1 %0 to i8
  store i8 %21, ptr %7, align 1
  store ptr %1, ptr %8, align 8
  store ptr %2, ptr %9, align 8
  store ptr %3, ptr %10, align 8
  store i32 %4, ptr %11, align 4
  store ptr %5, ptr %12, align 8
  store i64 0, ptr %17, align 8
  %22 = load i8, ptr %7, align 1
  %23 = trunc i8 %22 to i1
  br i1 %23, label %35, label %24

24:                                               ; preds = %6
  %25 = load ptr, ptr %8, align 8
  %26 = load ptr, ptr %9, align 8
  %27 = load ptr, ptr %10, align 8
  %28 = load i32, ptr %11, align 4
  %29 = call i32 @dissect_ber_identifier(ptr noundef %25, ptr noundef %26, ptr noundef %27, i32 noundef %28, ptr noundef %13, ptr noundef %14, ptr noundef %15)
  store i32 %29, ptr %11, align 4
  %30 = load ptr, ptr %8, align 8
  %31 = load ptr, ptr %9, align 8
  %32 = load ptr, ptr %10, align 8
  %33 = load i32, ptr %11, align 4
  %34 = call i32 @dissect_ber_length(ptr noundef %30, ptr noundef %31, ptr noundef %32, i32 noundef %33, ptr noundef %16, ptr noundef null)
  store i32 %34, ptr %11, align 4
  br label %39

35:                                               ; preds = %6
  %36 = load ptr, ptr %10, align 8
  %37 = load i32, ptr %11, align 4
  %38 = call i32 @tvb_reported_length_remaining(ptr noundef %36, i32 noundef %37)
  store i32 %38, ptr %16, align 4
  br label %39

39:                                               ; preds = %35, %24
  %40 = load i32, ptr %16, align 4
  %41 = icmp ugt i32 %40, 8
  br i1 %41, label %45, label %42

42:                                               ; preds = %39
  %43 = load i32, ptr %16, align 4
  %44 = icmp ult i32 %43, 1
  br i1 %44, label %45, label %46

45:                                               ; preds = %42, %39
  call void @except_throw(i64 noundef 1, i64 noundef 1, ptr noundef null) #7
  unreachable

46:                                               ; preds = %42
  store i32 1, ptr %18, align 4
  br label %47

47:                                               ; preds = %61, %46
  %48 = load i32, ptr %18, align 4
  %49 = load i32, ptr %16, align 4
  %50 = icmp ule i32 %48, %49
  br i1 %50, label %51, label %64

51:                                               ; preds = %47
  %52 = load i64, ptr %17, align 8
  %53 = shl i64 %52, 8
  %54 = load ptr, ptr %10, align 8
  %55 = load i32, ptr %11, align 4
  %56 = call zeroext i8 @tvb_get_guint8(ptr noundef %54, i32 noundef %55)
  %57 = zext i8 %56 to i64
  %58 = or i64 %53, %57
  store i64 %58, ptr %17, align 8
  %59 = load i32, ptr %11, align 4
  %60 = add i32 %59, 1
  store i32 %60, ptr %11, align 4
  br label %61

61:                                               ; preds = %51
  %62 = load i32, ptr %18, align 4
  %63 = add i32 %62, 1
  store i32 %63, ptr %18, align 4
  br label %47, !llvm.loop !28

64:                                               ; preds = %47
  %65 = load i64, ptr %17, align 8
  %66 = icmp ugt i64 %65, 4294967295
  br i1 %66, label %67, label %81

67:                                               ; preds = %64
  %68 = load ptr, ptr %9, align 8
  %69 = load i32, ptr @hf_h248_context_id64, align 4
  %70 = load ptr, ptr %10, align 8
  %71 = load i32, ptr %11, align 4
  %72 = load i32, ptr %16, align 4
  %73 = sub i32 %71, %72
  %74 = load i32, ptr %16, align 4
  %75 = load i64, ptr %17, align 8
  %76 = call ptr @proto_tree_add_uint64(ptr noundef %68, i32 noundef %69, ptr noundef %70, i32 noundef %73, i32 noundef %74, i64 noundef %75)
  store ptr %76, ptr %19, align 8
  %77 = load ptr, ptr %8, align 8
  %78 = load ptr, ptr %19, align 8
  %79 = call ptr @expert_add_info(ptr noundef %77, ptr noundef %78, ptr noundef @ei_h248_context_id64)
  %80 = load ptr, ptr %12, align 8
  store i32 -3, ptr %80, align 4
  br label %112

81:                                               ; preds = %64
  %82 = load ptr, ptr %9, align 8
  %83 = load i32, ptr @hf_h248_context_id, align 4
  %84 = load ptr, ptr %10, align 8
  %85 = load i32, ptr %11, align 4
  %86 = load i32, ptr %16, align 4
  %87 = sub i32 %85, %86
  %88 = load i32, ptr %16, align 4
  %89 = load i64, ptr %17, align 8
  %90 = trunc i64 %89 to i32
  %91 = call ptr @proto_tree_add_uint(ptr noundef %82, i32 noundef %83, ptr noundef %84, i32 noundef %87, i32 noundef %88, i32 noundef %90)
  store ptr %91, ptr %20, align 8
  %92 = load i64, ptr %17, align 8
  %93 = icmp eq i64 %92, 0
  br i1 %93, label %94, label %96

94:                                               ; preds = %81
  %95 = load ptr, ptr %20, align 8
  call void (ptr, ptr, ...) @proto_item_set_text(ptr noundef %95, ptr noundef @.str.1313)
  br label %108

96:                                               ; preds = %81
  %97 = load i64, ptr %17, align 8
  %98 = icmp eq i64 %97, 4294967294
  br i1 %98, label %99, label %101

99:                                               ; preds = %96
  %100 = load ptr, ptr %20, align 8
  call void (ptr, ptr, ...) @proto_item_set_text(ptr noundef %100, ptr noundef @.str.1314)
  br label %107

101:                                              ; preds = %96
  %102 = load i64, ptr %17, align 8
  %103 = icmp eq i64 %102, 4294967295
  br i1 %103, label %104, label %106

104:                                              ; preds = %101
  %105 = load ptr, ptr %20, align 8
  call void (ptr, ptr, ...) @proto_item_set_text(ptr noundef %105, ptr noundef @.str.1315)
  br label %106

106:                                              ; preds = %104, %101
  br label %107

107:                                              ; preds = %106, %99
  br label %108

108:                                              ; preds = %107, %94
  %109 = load i64, ptr %17, align 8
  %110 = trunc i64 %109 to i32
  %111 = load ptr, ptr %12, align 8
  store i32 %110, ptr %111, align 4
  br label %112

112:                                              ; preds = %108, %67
  br label %113

113:                                              ; preds = %112
  %114 = load i32, ptr %11, align 4
  ret i32 %114
}

; Function Attrs: nounwind uwtable
define internal i32 @dissect_h248_ContextId(i1 noundef zeroext %0, ptr noundef %1, i32 noundef %2, ptr noundef %3, ptr noundef %4, i32 noundef %5) #0 {
  %7 = alloca i8, align 1
  %8 = alloca ptr, align 8
  %9 = alloca i32, align 4
  %10 = alloca ptr, align 8
  %11 = alloca ptr, align 8
  %12 = alloca i32, align 4
  %13 = alloca i32, align 4
  %14 = zext i1 %0 to i8
  store i8 %14, ptr %7, align 1
  store ptr %1, ptr %8, align 8
  store i32 %2, ptr %9, align 4
  store ptr %3, ptr %10, align 8
  store ptr %4, ptr %11, align 8
  store i32 %5, ptr %12, align 4
  store i32 0, ptr %13, align 4
  %15 = load i8, ptr %7, align 1
  %16 = trunc i8 %15 to i1
  %17 = load ptr, ptr %10, align 8
  %18 = getelementptr inbounds %struct._asn1_ctx_t, ptr %17, i32 0, i32 3
  %19 = load ptr, ptr %18, align 8
  %20 = load ptr, ptr %11, align 8
  %21 = load ptr, ptr %8, align 8
  %22 = load i32, ptr %9, align 4
  %23 = call i32 @dissect_h248_ctx_id(i1 noundef zeroext %16, ptr noundef %19, ptr noundef %20, ptr noundef %21, i32 noundef %22, ptr noundef %13)
  store i32 %23, ptr %9, align 4
  %24 = getelementptr inbounds %struct._h248_curr_info_t, ptr @curr_info, i32 0, i32 2
  %25 = load ptr, ptr %24, align 8
  %26 = getelementptr inbounds %struct._h248_curr_info_t, ptr @curr_info, i32 0, i32 1
  %27 = load ptr, ptr %26, align 8
  %28 = load i32, ptr %13, align 4
  %29 = load ptr, ptr %10, align 8
  %30 = getelementptr inbounds %struct._asn1_ctx_t, ptr %29, i32 0, i32 3
  %31 = load ptr, ptr %30, align 8
  %32 = load i32, ptr @keep_persistent_data, align 4
  %33 = call ptr @gcp_ctx(ptr noundef %25, ptr noundef %27, i32 noundef %28, ptr noundef %31, i32 noundef %32)
  store ptr %33, ptr @curr_info, align 8
  %34 = getelementptr inbounds %struct._h248_curr_info_t, ptr @curr_info, i32 0, i32 4
  store ptr null, ptr %34, align 8
  %35 = getelementptr inbounds %struct._h248_curr_info_t, ptr @curr_info, i32 0, i32 3
  store ptr null, ptr %35, align 8
  %36 = load i32, ptr %9, align 4
  ret i32 %36
}