; Function Attrs: nounwind uwtable
define internal noundef i32 @dissect_h248_ContextId(i1 noundef zeroext %0, ptr noundef %1, i32 noundef %2, ptr noundef readonly captures(none) %3, ptr noundef %4, i32 %5) #0 {
  %7 = alloca i8, align 1
  %8 = alloca i8, align 1
  %9 = alloca i32, align 4
  %10 = alloca i32, align 4
  %11 = getelementptr inbounds nuw i8, ptr %3, i64 16
  %12 = load ptr, ptr %11, align 8
  call void @llvm.lifetime.start.p0(i64 1, ptr nonnull %7)
  call void @llvm.lifetime.start.p0(i64 1, ptr nonnull %8)
  call void @llvm.lifetime.start.p0(i64 4, ptr nonnull %9)
  call void @llvm.lifetime.start.p0(i64 4, ptr nonnull %10)
  br i1 %0, label %16, label %13

13:                                               ; preds = %6
  %14 = call i32 @dissect_ber_identifier(ptr noundef %12, ptr noundef %4, ptr noundef %1, i32 noundef %2, ptr noundef nonnull %7, ptr noundef nonnull %8, ptr noundef nonnull %9) #7
  %15 = call i32 @dissect_ber_length(ptr noundef %12, ptr noundef %4, ptr noundef %1, i32 noundef %14, ptr noundef nonnull %10, ptr noundef null) #7
  %.pre.i = load i32, ptr %10, align 4
  br label %18

16:                                               ; preds = %6
  %17 = tail call i32 @tvb_reported_length_remaining(ptr noundef %1, i32 noundef %2) #7
  store i32 %17, ptr %10, align 4
  br label %18

18:                                               ; preds = %16, %13
  %19 = phi i32 [ %17, %16 ], [ %.pre.i, %13 ]
  %.0.i = phi i32 [ %2, %16 ], [ %15, %13 ]
  %20 = add i32 %19, -9
  %or.cond.i = icmp ult i32 %20, -8
  br i1 %or.cond.i, label %21, label %.lr.ph.i

21:                                               ; preds = %18
  call void @except_throw(i64 noundef 1, i64 noundef 1, ptr noundef null) #9
  unreachable

.lr.ph.i:                                         ; preds = %18, %.lr.ph.i
  %.144.i = phi i32 [ %26, %.lr.ph.i ], [ %.0.i, %18 ]
  %.03843.i = phi i64 [ %25, %.lr.ph.i ], [ 0, %18 ]
  %.03942.i = phi i32 [ %27, %.lr.ph.i ], [ 1, %18 ]
  %22 = shl i64 %.03843.i, 8
  %23 = call zeroext i8 @tvb_get_guint8(ptr noundef %1, i32 noundef %.144.i) #7
  %24 = zext i8 %23 to i64
  %25 = or disjoint i64 %22, %24
  %26 = add i32 %.144.i, 1
  %27 = add i32 %.03942.i, 1
  %28 = load i32, ptr %10, align 4
  %.not.i = icmp ugt i32 %27, %28
  br i1 %.not.i, label %._crit_edge.i, label %.lr.ph.i, !llvm.loop !28

._crit_edge.i:                                    ; preds = %.lr.ph.i
  %29 = icmp ugt i64 %22, 4294967295
  %30 = sub i32 %26, %28
  br i1 %29, label %31, label %35

31:                                               ; preds = %._crit_edge.i
  %32 = load i32, ptr @hf_h248_context_id64, align 4
  %33 = call ptr @proto_tree_add_uint64(ptr noundef %4, i32 noundef %32, ptr noundef %1, i32 noundef %30, i32 noundef %28, i64 noundef %25) #7
  %34 = call ptr @expert_add_info(ptr noundef %12, ptr noundef %33, ptr noundef nonnull @ei_h248_context_id64) #7
  br label %dissect_h248_ctx_id.exit

35:                                               ; preds = %._crit_edge.i
  %36 = load i32, ptr @hf_h248_context_id, align 4
  %37 = trunc nuw i64 %25 to i32
  %38 = call ptr @proto_tree_add_uint(ptr noundef %4, i32 noundef %36, ptr noundef %1, i32 noundef %30, i32 noundef %28, i32 noundef %37) #7
  switch i32 %37, label %dissect_h248_ctx_id.exit [
    i32 0, label %39
    i32 -2, label %40
    i32 -1, label %41
  ]

39:                                               ; preds = %35
  call void (ptr, ptr, ...) @proto_item_set_text(ptr noundef %38, ptr noundef nonnull @.str.1313) #7
  br label %dissect_h248_ctx_id.exit

40:                                               ; preds = %35
  call void (ptr, ptr, ...) @proto_item_set_text(ptr noundef %38, ptr noundef nonnull @.str.1314) #7
  br label %dissect_h248_ctx_id.exit

41:                                               ; preds = %35
  call void (ptr, ptr, ...) @proto_item_set_text(ptr noundef %38, ptr noundef nonnull @.str.1315) #7
  br label %dissect_h248_ctx_id.exit

dissect_h248_ctx_id.exit:                         ; preds = %31, %35, %39, %40, %41
  %storemerge.i = phi i32 [ -3, %31 ], [ %37, %35 ], [ -2, %40 ], [ -1, %41 ], [ 0, %39 ]
  call void @llvm.lifetime.end.p0(i64 1, ptr nonnull %7)
  call void @llvm.lifetime.end.p0(i64 1, ptr nonnull %8)
  call void @llvm.lifetime.end.p0(i64 4, ptr nonnull %9)
  call void @llvm.lifetime.end.p0(i64 4, ptr nonnull %10)
  %42 = load ptr, ptr getelementptr inbounds nuw (i8, ptr @curr_info, i64 16), align 8
  %43 = load ptr, ptr getelementptr inbounds nuw (i8, ptr @curr_info, i64 8), align 8
  %44 = load ptr, ptr %11, align 8
  %45 = load i32, ptr @keep_persistent_data, align 4
  %46 = call ptr @gcp_ctx(ptr noundef %42, ptr noundef %43, i32 noundef %storemerge.i, ptr noundef %44, i32 noundef %45)
  store ptr %46, ptr @curr_info, align 8
  call void @llvm.memset.p0.i64(ptr noundef nonnull align 8 dereferenceable(16) getelementptr inbounds nuw (i8, ptr @curr_info, i64 24), i8 0, i64 16, i1 false)
  ret i32 %26
}